; Function Attrs: mustprogress uwtable
define internal void @_ZL20DOCTEST_ANON_FUNC_10v() #4 personality ptr @__gxx_personality_v0 {
  %1 = alloca %"class.doctest::String", align 8
  %2 = alloca %"struct.doctest::detail::ResultBuilder", align 8
  %3 = alloca %"class.doctest::String", align 8
  %4 = alloca i64, align 8
  %5 = alloca i64, align 8
  call void @_ZN7doctest6StringC1EPKc(ptr noundef nonnull align 8 dereferenceable(24) %3, ptr noundef nonnull @.str)
  invoke void @_ZN7doctest6detail13ResultBuilderC1ENS_10assertType4EnumEPKciS5_S5_RKNS_6StringE(ptr noundef nonnull align 8 dereferenceable(144) %2, i32 noundef 1034, ptr noundef nonnull @.str.5, i32 noundef 100, ptr noundef nonnull @.str.44, ptr noundef nonnull @.str, ptr noundef nonnull align 8 dereferenceable(24) %3)
          to label %6 unwind label %22

6:                                                ; preds = %0
  call void @_ZN7doctest6StringD1Ev(ptr noundef nonnull align 8 dereferenceable(24) %3) #17
  %7 = invoke noundef i64 @_ZN4Luau12editDistanceESt17basic_string_viewIcSt11char_traitsIcEES3_(i64 4, ptr nonnull @.str.45, i64 5, ptr nonnull @.str.46)
          to label %8 unwind label %24

8:                                                ; preds = %6
  store i64 %7, ptr %4, align 8
  %9 = invoke noundef i64 @_ZN4Luau12editDistanceESt17basic_string_viewIcSt11char_traitsIcEES3_(i64 5, ptr nonnull @.str.46, i64 4, ptr nonnull @.str.45)
          to label %10 unwind label %24

10:                                               ; preds = %8
  store i64 %9, ptr %5, align 8
  call void @llvm.lifetime.start.p0(i64 24, ptr nonnull %1)
  %11 = icmp ne i64 %7, %9
  %12 = getelementptr inbounds nuw i8, ptr %2, i64 40
  %13 = zext i1 %11 to i8
  store i8 %13, ptr %12, align 8
  br i1 %11, label %19, label %14

14:                                               ; preds = %10
  %15 = invoke noundef ptr @_ZN7doctest17getContextOptionsEv()
          to label %.noexc unwind label %24

.noexc:                                           ; preds = %14
  %16 = getelementptr inbounds nuw i8, ptr %15, i64 108
  %17 = load i8, ptr %16, align 4
  %18 = trunc i8 %17 to i1
  br i1 %18, label %19, label %_ZN7doctest6detail13ResultBuilder13binary_assertILi0EmmEEbRKT0_RKT1_.exit

19:                                               ; preds = %.noexc, %10
  invoke void @_ZN7doctest6detail19stringifyBinaryExprImmEENS_6StringERKT_PKcRKT0_(ptr dead_on_unwind nonnull writable sret(%"class.doctest::String") align 8 %1, ptr noundef nonnull align 8 dereferenceable(8) %4, ptr noundef nonnull @.str.47, ptr noundef nonnull align 8 dereferenceable(8) %5)
          to label %.noexc6 unwind label %24

.noexc6:                                          ; preds = %19
  %20 = getelementptr inbounds nuw i8, ptr %2, i64 72
  %21 = call noundef nonnull align 8 dereferenceable(24) ptr @_ZN7doctest6StringaSEOS0_(ptr noundef nonnull align 8 dereferenceable(24) %20, ptr noundef nonnull align 8 dereferenceable(24) %1) #17
  call void @_ZN7doctest6StringD1Ev(ptr noundef nonnull align 8 dereferenceable(24) %1) #17
  br label %_ZN7doctest6detail13ResultBuilder13binary_assertILi0EmmEEbRKT0_RKT1_.exit

_ZN7doctest6detail13ResultBuilder13binary_assertILi0EmmEEbRKT0_RKT1_.exit: ; preds = %.noexc, %.noexc6
  call void @llvm.lifetime.end.p0(i64 24, ptr nonnull %1)
  br label %29

22:                                               ; preds = %0
  %23 = landingpad { ptr, i32 }
          cleanup
  call void @_ZN7doctest6StringD1Ev(ptr noundef nonnull align 8 dereferenceable(24) %3) #17
  br label %43

24:                                               ; preds = %19, %14, %8, %6
  %25 = landingpad { ptr, i32 }
          catch ptr null
  %26 = extractvalue { ptr, i32 } %25, 0
  %27 = call ptr @__cxa_begin_catch(ptr %26) #17
  invoke void @_ZN7doctest6detail13ResultBuilder18translateExceptionEv(ptr noundef nonnull align 8 dereferenceable(144) %2)
          to label %28 unwind label %33

28:                                               ; preds = %24
  invoke void @__cxa_end_catch()
          to label %29 unwind label %35

29:                                               ; preds = %_ZN7doctest6detail13ResultBuilder13binary_assertILi0EmmEEbRKT0_RKT1_.exit, %28
  %30 = invoke noundef zeroext i1 @_ZN7doctest6detail13ResultBuilder3logEv(ptr noundef nonnull align 8 dereferenceable(144) %2)
          to label %31 unwind label %35

31:                                               ; preds = %29
  br i1 %30, label %32, label %37

32:                                               ; preds = %31
  call void asm sideeffect "int $$3\0A", "~{dirflag},~{fpsr},~{flags}"() #17, !srcloc !7
  br label %37

33:                                               ; preds = %24
  %34 = landingpad { ptr, i32 }
          cleanup
  invoke void @__cxa_end_catch()
          to label %42 unwind label %44

35:                                               ; preds = %37, %29, %28
  %36 = landingpad { ptr, i32 }
          cleanup
  br label %42

37:                                               ; preds = %32, %31
  invoke void @_ZNK7doctest6detail13ResultBuilder5reactEv(ptr noundef nonnull align 8 dereferenceable(144) %2)
          to label %38 unwind label %35

38:                                               ; preds = %37
  %39 = getelementptr inbounds nuw i8, ptr %2, i64 112
  call void @_ZN7doctest6StringD1Ev(ptr noundef nonnull align 8 dereferenceable(25) %39) #17
  %40 = getelementptr inbounds nuw i8, ptr %2, i64 72
  call void @_ZN7doctest6StringD1Ev(ptr noundef nonnull align 8 dereferenceable(24) %40) #17
  %41 = getelementptr inbounds nuw i8, ptr %2, i64 48
  call void @_ZN7doctest6StringD1Ev(ptr noundef nonnull align 8 dereferenceable(24) %41) #17
  ret void

42:                                               ; preds = %33, %35
  %.pn = phi { ptr, i32 } [ %36, %35 ], [ %34, %33 ]
  call void @_ZN7doctest6detail13ResultBuilderD2Ev(ptr noundef nonnull align 8 dereferenceable(144) %2) #17
  br label %43

43:                                               ; preds = %42, %22
  %.pn.pn = phi { ptr, i32 } [ %.pn, %42 ], [ %23, %22 ]
  resume { ptr, i32 } %.pn.pn

44:                                               ; preds = %33
  %45 = landingpad { ptr, i32 }
          catch ptr null
  %46 = extractvalue { ptr, i32 } %45, 0
  call void @__clang_call_terminate(ptr %46) #18
  unreachable
}